; Function Attrs: cold mustprogress nofree norecurse nosync nounwind optsize willreturn memory(readwrite, inaccessiblemem: none) uwtable
define internal noundef i32 @init(ptr noundef readonly captures(none) %0) #0 {
  %2 = getelementptr inbounds nuw i8, ptr %0, i64 72
  %3 = load ptr, ptr %2, align 8, !tbaa !4
  %4 = getelementptr inbounds nuw i8, ptr %3, i64 60
  %5 = load i32, ptr %4, align 4, !tbaa !20
  %6 = icmp slt i32 %5, 0
  br i1 %6, label %7, label %10

7:                                                ; preds = %1
  %8 = sub nsw i32 0, %5
  store i32 %8, ptr %4, align 4, !tbaa !20
  %9 = getelementptr inbounds nuw i8, ptr %3, i64 272
  store i32 1, ptr %9, align 8, !tbaa !26
  br label %10

10:                                               ; preds = %7, %1
  ret i32 0
}